; Function Attrs: nounwind uwtable
define hidden void @zif_sleep(ptr noundef %0, ptr nocapture noundef writeonly %1) #0 {
  %3 = alloca i64, align 8
  %4 = getelementptr inbounds i8, ptr %0, i64 44
  %5 = load i32, ptr %4, align 4
  %cond = icmp eq i32 %5, 1
  br i1 %cond, label %6, label %.thread80

6:                                                ; preds = %2
  %7 = getelementptr inbounds i8, ptr %0, i64 80
  %8 = getelementptr inbounds i8, ptr %0, i64 88
  %9 = load i8, ptr %8, align 8
  %10 = icmp eq i8 %9, 4
  br i1 %10, label %.thread70, label %12

.thread70:                                        ; preds = %6
  %11 = load i64, ptr %7, align 8
  store i64 %11, ptr %3, align 8
  br label %.thread88

12:                                               ; preds = %6
  %13 = call zeroext i1 @zend_parse_arg_long_slow(ptr noundef nonnull %7, ptr noundef nonnull %3, i32 noundef 1) #18
  %.fr = freeze i1 %13
  br i1 %.fr, label %.thread88thread-pre-split, label %14

.thread80:                                        ; preds = %2
  tail call void @zend_wrong_parameters_count_error(i32 noundef 1, i32 noundef 1) #18
  br label %14

14:                                               ; preds = %12, %.thread80
  %.05787 = phi i32 [ 1, %.thread80 ], [ 9, %12 ]
  %.05886 = phi i32 [ 0, %.thread80 ], [ 1, %12 ]
  %.06085 = phi ptr [ null, %.thread80 ], [ %7, %12 ]
  call void @zend_wrong_parameter_error(i32 noundef %.05787, i32 noundef %.05886, ptr noundef null, i32 noundef 0, ptr noundef %.06085) #18
  br label %25

.thread88thread-pre-split:                        ; preds = %12
  %.pr = load i64, ptr %3, align 8
  br label %.thread88

.thread88:                                        ; preds = %.thread88thread-pre-split, %.thread70
  %15 = phi i64 [ %.pr, %.thread88thread-pre-split ], [ %11, %.thread70 ]
  %16 = icmp slt i64 %15, 0
  br i1 %16, label %17, label %20

17:                                               ; preds = %.thread88
  call void (i32, ptr, ...) @zend_argument_value_error(i32 noundef 1, ptr noundef nonnull @.str.12) #18
  %18 = load ptr, ptr getelementptr inbounds (%struct._zend_executor_globals, ptr @executor_globals, i64 0, i32 50), align 8
  %19 = icmp ne ptr %18, null
  call void @llvm.assume(i1 %19)
  br label %25

20:                                               ; preds = %.thread88
  %21 = trunc i64 %15 to i32
  %22 = call i32 @sleep(i32 noundef %21) #18
  %23 = zext i32 %22 to i64
  store i64 %23, ptr %1, align 8
  %24 = getelementptr inbounds i8, ptr %1, i64 8
  store i32 4, ptr %24, align 8
  br label %25

25:                                               ; preds = %20, %17, %14
  ret void
}